; Function Attrs: nounwind uwtable
define hidden void @zim_FiberError___construct(ptr noundef readonly captures(none) %0, ptr readnone captures(none) %1) #7 {
  %3 = getelementptr inbounds nuw i8, ptr %0, i64 32
  %4 = load ptr, ptr %3, align 8, !tbaa !56
  %5 = getelementptr inbounds nuw i8, ptr %4, i64 16
  %6 = load ptr, ptr %5, align 8, !tbaa !157
  %7 = getelementptr inbounds nuw i8, ptr %6, i64 8
  %8 = load ptr, ptr %7, align 8, !tbaa !160
  %9 = getelementptr inbounds nuw i8, ptr %8, i64 24
  tail call void (ptr, ptr, ...) @zend_throw_error(ptr noundef null, ptr noundef nonnull @.str.16, ptr noundef nonnull %9) #22
  ret void
}